target datalayout = "e-m:e-p270:32:32-p271:32:32-p272:64:64-i64:64-i128:128-f80:128-n8:16:32:64-S128"
target triple = "x86_64-pc-linux-gnu"

@.str.15 = private unnamed_addr constant [58 x i8] c"\0APredator-prey test problem --  KINSol (serial version)\0A\0A\00", align 1
@.str.16 = private unnamed_addr constant [27 x i8] c"Mesh dimensions = %d X %d\0A\00", align 1
@.str.17 = private unnamed_addr constant [24 x i8] c"Number of species = %d\0A\00", align 1
@.str.18 = private unnamed_addr constant [25 x i8] c"Total system size = %d\0A\0A\00", align 1
@.str.19 = private unnamed_addr constant [53 x i8] c"Flag globalstrategy = %d (0 = None, 1 = Linesearch)\0A\00", align 1
@.str.20 = private unnamed_addr constant [53 x i8] c"Linear solver is SPGMR with maxl = %d, maxlrst = %d\0A\00", align 1
@.str.21 = private unnamed_addr constant [61 x i8] c"Preconditioning uses interaction-only block-diagonal matrix\0A\00", align 1
@.str.22 = private unnamed_addr constant [51 x i8] c"Positivity constraints imposed on all components \0A\00", align 1
@.str.23 = private unnamed_addr constant [55 x i8] c"Tolerance parameters:  fnormtol = %g   scsteptol = %g\0A\00", align 1
@.str.24 = private unnamed_addr constant [35 x i8] c"\0AInitial profile of concentration\0A\00", align 1
@.str.25 = private unnamed_addr constant [42 x i8] c"At all mesh points:  %g %g %g   %g %g %g\0A\00", align 1

; Function Attrs: nounwind uwtable
define internal void @PrintHeader(i32 noundef %0, i32 noundef %1, i32 noundef %2, double noundef %3, double noundef %4) #0 {
  %6 = alloca i32, align 4
  %7 = alloca i32, align 4
  %8 = alloca i32, align 4
  %9 = alloca double, align 8
  %10 = alloca double, align 8
  store i32 %0, ptr %6, align 4, !tbaa !12
  store i32 %1, ptr %7, align 4, !tbaa !12
  store i32 %2, ptr %8, align 4, !tbaa !12
  store double %3, ptr %9, align 8, !tbaa !22
  store double %4, ptr %10, align 8, !tbaa !22
  %11 = call i32 (ptr, ...) @printf(ptr noundef @.str.15)
  %12 = call i32 (ptr, ...) @printf(ptr noundef @.str.16, i32 noundef 8, i32 noundef 8)
  %13 = call i32 (ptr, ...) @printf(ptr noundef @.str.17, i32 noundef 6)
  %14 = call i32 (ptr, ...) @printf(ptr noundef @.str.18, i32 noundef 384)
  %15 = load i32, ptr %6, align 4, !tbaa !12
  %16 = call i32 (ptr, ...) @printf(ptr noundef @.str.19, i32 noundef %15)
  %17 = load i32, ptr %7, align 4, !tbaa !12
  %18 = load i32, ptr %8, align 4, !tbaa !12
  %19 = call i32 (ptr, ...) @printf(ptr noundef @.str.20, i32 noundef %17, i32 noundef %18)
  %20 = call i32 (ptr, ...) @printf(ptr noundef @.str.21)
  %21 = call i32 (ptr, ...) @printf(ptr noundef @.str.22)
  %22 = load double, ptr %9, align 8, !tbaa !22
  %23 = load double, ptr %10, align 8, !tbaa !22
  %24 = call i32 (ptr, ...) @printf(ptr noundef @.str.23, double noundef %22, double noundef %23)
  %25 = call i32 (ptr, ...) @printf(ptr noundef @.str.24)
  %26 = call i32 (ptr, ...) @printf(ptr noundef @.str.25, double noundef 1.000000e+00, double noundef 1.000000e+00, double noundef 1.000000e+00, double noundef 3.000000e+04, double noundef 3.000000e+04, double noundef 3.000000e+04)
  ret void
}