; Function Attrs: nofree nounwind uwtable
define internal fastcc void @PrintHeader() unnamed_addr #4 {
  %puts = tail call i32 @puts(ptr nonnull dereferenceable(1) @str.1)
  %1 = tail call i32 (ptr, ...) @printf(ptr noundef nonnull dereferenceable(1) @.str.16, i32 noundef 8, i32 noundef 8)
  %2 = tail call i32 (ptr, ...) @printf(ptr noundef nonnull dereferenceable(1) @.str.17, i32 noundef 6)
  %3 = tail call i32 (ptr, ...) @printf(ptr noundef nonnull dereferenceable(1) @.str.18, i32 noundef 384)
  %4 = tail call i32 (ptr, ...) @printf(ptr noundef nonnull dereferenceable(1) @.str.19, i32 noundef 0)
  %5 = tail call i32 (ptr, ...) @printf(ptr noundef nonnull dereferenceable(1) @.str.20, i32 noundef 15, i32 noundef 2)
  %puts4 = tail call i32 @puts(ptr nonnull dereferenceable(1) @str.2)
  %puts5 = tail call i32 @puts(ptr nonnull dereferenceable(1) @str.3)
  %6 = tail call i32 (ptr, ...) @printf(ptr noundef nonnull dereferenceable(1) @.str.23, double noundef 0x3E7AD7F29ABCAF48, double noundef 1.000000e-13)
  %puts6 = tail call i32 @puts(ptr nonnull dereferenceable(1) @str.4)
  %7 = tail call i32 (ptr, ...) @printf(ptr noundef nonnull dereferenceable(1) @.str.25, double noundef 1.000000e+00, double noundef 1.000000e+00, double noundef 1.000000e+00, double noundef 3.000000e+04, double noundef 3.000000e+04, double noundef 3.000000e+04)
  ret void
}